target datalayout = "e-m:e-p270:32:32-p271:32:32-p272:64:64-i64:64-i128:128-f80:128-n8:16:32:64-S128"
target triple = "x86_64-pc-linux-gnu"

%class.ImageFileReaderTable = type { i32, i32, ptr }

; Function Attrs: mustprogress nounwind uwtable
define hidden void @_ZN20ImageFileReaderTable3addEP15ImageFileReader(ptr noundef nonnull align 8 dereferenceable(16) %0, ptr noundef %1) #0 align 2 {
  %3 = alloca ptr, align 8
  %4 = alloca ptr, align 8
  store ptr %0, ptr %3, align 8
  store ptr %1, ptr %4, align 8
  %5 = load ptr, ptr %3, align 8
  %6 = getelementptr inbounds %class.ImageFileReaderTable, ptr %5, i32 0, i32 0
  %7 = load i32, ptr %6, align 8
  %8 = getelementptr inbounds %class.ImageFileReaderTable, ptr %5, i32 0, i32 1
  %9 = load i32, ptr %8, align 4
  %10 = icmp eq i32 %7, %9
  br i1 %10, label %11, label %23

11:                                               ; preds = %2
  %12 = getelementptr inbounds %class.ImageFileReaderTable, ptr %5, i32 0, i32 1
  %13 = load i32, ptr %12, align 4
  %14 = add i32 %13, 8
  store i32 %14, ptr %12, align 4
  %15 = getelementptr inbounds %class.ImageFileReaderTable, ptr %5, i32 0, i32 2
  %16 = load ptr, ptr %15, align 8
  %17 = getelementptr inbounds %class.ImageFileReaderTable, ptr %5, i32 0, i32 1
  %18 = load i32, ptr %17, align 4
  %19 = zext i32 %18 to i64
  %20 = mul i64 %19, 8
  %21 = call ptr @realloc(ptr noundef %16, i64 noundef %20) #17
  %22 = getelementptr inbounds %class.ImageFileReaderTable, ptr %5, i32 0, i32 2
  store ptr %21, ptr %22, align 8
  br label %23

23:                                               ; preds = %11, %2
  %24 = load ptr, ptr %4, align 8
  %25 = getelementptr inbounds %class.ImageFileReaderTable, ptr %5, i32 0, i32 2
  %26 = load ptr, ptr %25, align 8
  %27 = getelementptr inbounds %class.ImageFileReaderTable, ptr %5, i32 0, i32 0
  %28 = load i32, ptr %27, align 8
  %29 = add i32 %28, 1
  store i32 %29, ptr %27, align 8
  %30 = zext i32 %28 to i64
  %31 = getelementptr inbounds ptr, ptr %26, i64 %30
  store ptr %24, ptr %31, align 8
  ret void
}