; Function Attrs: mustprogress nounwind willreturn uwtable
define hidden void @_ZN20ImageFileReaderTable3addEP15ImageFileReader(ptr nocapture noundef nonnull align 8 dereferenceable(16) %0, ptr noundef %1) local_unnamed_addr #13 align 2 {
  %3 = load i32, ptr %0, align 8
  %4 = getelementptr inbounds i8, ptr %0, i64 4
  %5 = load i32, ptr %4, align 4
  %6 = icmp eq i32 %3, %5
  br i1 %6, label %7, label %._crit_edge

._crit_edge:                                      ; preds = %2
  %.phi.trans.insert = getelementptr inbounds i8, ptr %0, i64 8
  %.pre = load ptr, ptr %.phi.trans.insert, align 8
  br label %14

7:                                                ; preds = %2
  %8 = add i32 %3, 8
  store i32 %8, ptr %4, align 4
  %9 = getelementptr inbounds i8, ptr %0, i64 8
  %10 = load ptr, ptr %9, align 8
  %11 = zext i32 %8 to i64
  %12 = shl nuw nsw i64 %11, 3
  %13 = tail call ptr @realloc(ptr noundef %10, i64 noundef %12) #26
  store ptr %13, ptr %9, align 8
  %.pre2 = load i32, ptr %0, align 8
  br label %14

14:                                               ; preds = %._crit_edge, %7
  %15 = phi i32 [ %3, %._crit_edge ], [ %.pre2, %7 ]
  %16 = phi ptr [ %.pre, %._crit_edge ], [ %13, %7 ]
  %17 = add i32 %15, 1
  store i32 %17, ptr %0, align 8
  %18 = zext i32 %15 to i64
  %19 = getelementptr inbounds ptr, ptr %16, i64 %18
  store ptr %1, ptr %19, align 8
  ret void
}